target datalayout = "e-m:e-p270:32:32-p271:32:32-p272:64:64-i64:64-i128:128-f80:128-n8:16:32:64-S128"
target triple = "x86_64-unknown-linux-gnu"

%"class.datalog::table_signature" = type <{ %"class.datalog::tr_infrastructure<datalog::table_traits>::signature_base", i32, [4 x i8] }>
%"class.datalog::tr_infrastructure<datalog::table_traits>::signature_base" = type { %class.svector.2 }
%class.svector.2 = type { %class.vector.3 }
%class.vector.3 = type { ptr }
%"class.datalog::tr_infrastructure<datalog::table_traits>::base_ancestor" = type <{ ptr, ptr, %"class.datalog::table_signature", i32, [4 x i8] }>
%class.symbol = type { ptr }
%"class.datalog::tr_infrastructure<datalog::table_traits>::plugin_object" = type { ptr, i32, %class.symbol, ptr }

; Function Attrs: mustprogress nounwind uwtable
define linkonce_odr hidden noundef ptr @_ZNK6vectorImLb0EjE4dataEv(ptr noundef nonnull align 8 dereferenceable(8) %this) #5 comdat align 2 {
entry:
  %this.addr = alloca ptr, align 8
  store ptr %this, ptr %this.addr, align 8
  %this1 = load ptr, ptr %this.addr, align 8
  %m_data = getelementptr inbounds %class.vector.3, ptr %this1, i32 0, i32 0
  %0 = load ptr, ptr %m_data, align 8
  ret ptr %0
}

; Function Attrs: mustprogress nounwind uwtable
define linkonce_odr hidden noundef i32 @_ZNK6vectorImLb0EjE4sizeEv(ptr noundef nonnull align 8 dereferenceable(8) %this) #5 comdat align 2 {
entry:
  %retval = alloca i32, align 4
  %this.addr = alloca ptr, align 8
  store ptr %this, ptr %this.addr, align 8
  %this1 = load ptr, ptr %this.addr, align 8
  %m_data = getelementptr inbounds %class.vector.3, ptr %this1, i32 0, i32 0
  %0 = load ptr, ptr %m_data, align 8
  %cmp = icmp eq ptr %0, null
  br i1 %cmp, label %if.then, label %if.end

if.then:                                          ; preds = %entry
  store i32 0, ptr %retval, align 4
  br label %return

if.end:                                           ; preds = %entry
  %m_data2 = getelementptr inbounds %class.vector.3, ptr %this1, i32 0, i32 0
  %1 = load ptr, ptr %m_data2, align 8
  %arrayidx = getelementptr inbounds i32, ptr %1, i64 -1
  %2 = load i32, ptr %arrayidx, align 4
  store i32 %2, ptr %retval, align 4
  br label %return

return:                                           ; preds = %if.end, %if.then
  %3 = load i32, ptr %retval, align 4
  ret i32 %3
}

; Function Attrs: mustprogress nounwind uwtable
define linkonce_odr hidden void @_ZN7datalog17tr_infrastructureINS_12table_traitsEE7base_fnC2Ev(ptr noundef nonnull align 8 dereferenceable(8) %this) unnamed_addr #5 comdat align 2 {
entry:
  %this.addr = alloca ptr, align 8
  store ptr %this, ptr %this.addr, align 8
  %this1 = load ptr, ptr %this.addr, align 8
  store ptr getelementptr inbounds ({ [4 x ptr] }, ptr @_ZTVN7datalog17tr_infrastructureINS_12table_traitsEE7base_fnE, i32 0, i32 0, i32 2), ptr %this1, align 8
  ret void
}

; Function Attrs: mustprogress uwtable
define linkonce_odr hidden noundef zeroext i1 @_ZNK7datalog17tr_infrastructureINS_12table_traitsEE14signature_baseeqERKNS_15table_signatureE(ptr noundef nonnull align 8 dereferenceable(8) %this, ptr noundef nonnull align 8 dereferenceable(12) %o) #4 comdat align 2 {
entry:
  %retval = alloca i1, align 1
  %this.addr = alloca ptr, align 8
  %o.addr = alloca ptr, align 8
  %n = alloca i32, align 4
  store ptr %this, ptr %this.addr, align 8
  store ptr %o, ptr %o.addr, align 8
  %this1 = load ptr, ptr %this.addr, align 8
  %call = call noundef i32 @_ZNK6vectorImLb0EjE4sizeEv(ptr noundef nonnull align 8 dereferenceable(8) %this1)
  store i32 %call, ptr %n, align 4
  %0 = load i32, ptr %n, align 4
  %1 = load ptr, ptr %o.addr, align 8
  %call2 = call noundef i32 @_ZNK6vectorImLb0EjE4sizeEv(ptr noundef nonnull align 8 dereferenceable(8) %1)
  %cmp = icmp ne i32 %0, %call2
  br i1 %cmp, label %if.then, label %if.end

if.then:                                          ; preds = %entry
  store i1 false, ptr %retval, align 1
  br label %return

if.end:                                           ; preds = %entry
  %call3 = call noundef ptr @_ZNK6vectorImLb0EjE4dataEv(ptr noundef nonnull align 8 dereferenceable(8) %this1)
  %2 = load ptr, ptr %o.addr, align 8
  %call4 = call noundef ptr @_ZNK6vectorImLb0EjE4dataEv(ptr noundef nonnull align 8 dereferenceable(8) %2)
  %3 = load i32, ptr %n, align 4
  %conv = zext i32 %3 to i64
  %mul = mul i64 %conv, 8
  %call5 = call i32 @memcmp(ptr noundef %call3, ptr noundef %call4, i64 noundef %mul) #9
  %cmp6 = icmp eq i32 %call5, 0
  store i1 %cmp6, ptr %retval, align 1
  br label %return

return:                                           ; preds = %if.end, %if.then
  %4 = load i1, ptr %retval, align 1
  ret i1 %4
}

; Function Attrs: mustprogress nounwind uwtable
define linkonce_odr hidden void @_ZN7datalog17tr_infrastructureINS_12table_traitsEE8union_fnC2Ev(ptr noundef nonnull align 8 dereferenceable(8) %this) unnamed_addr #5 comdat align 2 {
entry:
  %this.addr = alloca ptr, align 8
  store ptr %this, ptr %this.addr, align 8
  %this1 = load ptr, ptr %this.addr, align 8
  call void @_ZN7datalog17tr_infrastructureINS_12table_traitsEE7base_fnC2Ev(ptr noundef nonnull align 8 dereferenceable(8) %this1) #3
  store ptr getelementptr inbounds ({ [5 x ptr] }, ptr @_ZTVN7datalog17tr_infrastructureINS_12table_traitsEE8union_fnE, i32 0, i32 0, i32 2), ptr %this1, align 8
  ret void
}

; Function Attrs: mustprogress uwtable
define linkonce_odr hidden noundef zeroext i1 @_ZNK7datalog15table_signatureeqERKS0_(ptr noundef nonnull align 8 dereferenceable(12) %this, ptr noundef nonnull align 8 dereferenceable(12) %o) #4 comdat align 2 {
entry:
  %this.addr = alloca ptr, align 8
  %o.addr = alloca ptr, align 8
  store ptr %this, ptr %this.addr, align 8
  store ptr %o, ptr %o.addr, align 8
  %this1 = load ptr, ptr %this.addr, align 8
  %0 = load ptr, ptr %o.addr, align 8
  %call = call noundef zeroext i1 @_ZNK7datalog17tr_infrastructureINS_12table_traitsEE14signature_baseeqERKNS_15table_signatureE(ptr noundef nonnull align 8 dereferenceable(8) %this1, ptr noundef nonnull align 8 dereferenceable(12) %0)
  br i1 %call, label %land.rhs, label %land.end

land.rhs:                                         ; preds = %entry
  %m_functional_columns = getelementptr inbounds %"class.datalog::table_signature", ptr %this1, i32 0, i32 1
  %1 = load i32, ptr %m_functional_columns, align 8
  %2 = load ptr, ptr %o.addr, align 8
  %m_functional_columns2 = getelementptr inbounds %"class.datalog::table_signature", ptr %2, i32 0, i32 1
  %3 = load i32, ptr %m_functional_columns2, align 8
  %cmp = icmp eq i32 %1, %3
  br label %land.end

land.end:                                         ; preds = %land.rhs, %entry
  %4 = phi i1 [ false, %entry ], [ %cmp, %land.rhs ]
  ret i1 %4
}

; Function Attrs: mustprogress nounwind uwtable
define linkonce_odr hidden void @_ZN7datalog19sparse_table_plugin8union_fnC2Ev(ptr noundef nonnull align 8 dereferenceable(8) %this) unnamed_addr #5 comdat align 2 {
entry:
  %this.addr = alloca ptr, align 8
  store ptr %this, ptr %this.addr, align 8
  %this1 = load ptr, ptr %this.addr, align 8
  call void @_ZN7datalog17tr_infrastructureINS_12table_traitsEE8union_fnC2Ev(ptr noundef nonnull align 8 dereferenceable(8) %this1) #3
  store ptr getelementptr inbounds ({ [5 x ptr] }, ptr @_ZTVN7datalog19sparse_table_plugin8union_fnE, i32 0, i32 0, i32 2), ptr %this1, align 8
  ret void
}

; Function Attrs: mustprogress uwtable
define linkonce_odr hidden noundef zeroext i1 @_ZNK7datalog15table_signatureneERKS0_(ptr noundef nonnull align 8 dereferenceable(12) %this, ptr noundef nonnull align 8 dereferenceable(12) %o) #4 comdat align 2 {
entry:
  %this.addr = alloca ptr, align 8
  %o.addr = alloca ptr, align 8
  store ptr %this, ptr %this.addr, align 8
  store ptr %o, ptr %o.addr, align 8
  %this1 = load ptr, ptr %this.addr, align 8
  %0 = load ptr, ptr %o.addr, align 8
  %call = call noundef zeroext i1 @_ZNK7datalog15table_signatureeqERKS0_(ptr noundef nonnull align 8 dereferenceable(12) %this1, ptr noundef nonnull align 8 dereferenceable(12) %0)
  %lnot = xor i1 %call, true
  ret i1 %lnot
}

; Function Attrs: mustprogress nounwind uwtable
define linkonce_odr hidden noundef nonnull align 8 dereferenceable(12) ptr @_ZNK7datalog17tr_infrastructureINS_12table_traitsEE13base_ancestor13get_signatureEv(ptr noundef nonnull align 8 dereferenceable(36) %this) #5 comdat align 2 {
entry:
  %this.addr = alloca ptr, align 8
  store ptr %this, ptr %this.addr, align 8
  %this1 = load ptr, ptr %this.addr, align 8
  %m_signature = getelementptr inbounds %"class.datalog::tr_infrastructure<datalog::table_traits>::base_ancestor", ptr %this1, i32 0, i32 2
  ret ptr %m_signature
}

; Function Attrs: mustprogress nounwind uwtable
define linkonce_odr hidden noundef i32 @_ZNK7datalog17tr_infrastructureINS_12table_traitsEE13plugin_object8get_kindEv(ptr noundef nonnull align 8 dereferenceable(32) %this) #5 comdat align 2 {
entry:
  %this.addr = alloca ptr, align 8
  store ptr %this, ptr %this.addr, align 8
  %this1 = load ptr, ptr %this.addr, align 8
  %m_kind = getelementptr inbounds %"class.datalog::tr_infrastructure<datalog::table_traits>::plugin_object", ptr %this1, i32 0, i32 1
  %0 = load i32, ptr %m_kind, align 8
  ret i32 %0
}

; Function Attrs: mustprogress nounwind uwtable
define linkonce_odr hidden noundef i32 @_ZNK7datalog17tr_infrastructureINS_12table_traitsEE13base_ancestor8get_kindEv(ptr noundef nonnull align 8 dereferenceable(36) %this) #5 comdat align 2 {
entry:
  %this.addr = alloca ptr, align 8
  store ptr %this, ptr %this.addr, align 8
  %this1 = load ptr, ptr %this.addr, align 8
  %m_kind = getelementptr inbounds %"class.datalog::tr_infrastructure<datalog::table_traits>::base_ancestor", ptr %this1, i32 0, i32 3
  %0 = load i32, ptr %m_kind, align 8
  ret i32 %0
}

; Function Attrs: mustprogress uwtable
define hidden noundef ptr @_ZN7datalog19sparse_table_plugin11mk_union_fnERKNS_10table_baseES3_PS2_(ptr noundef nonnull align 8 dereferenceable(56) %this, ptr noundef nonnull align 8 dereferenceable(36) %tgt, ptr noundef nonnull align 8 dereferenceable(36) %src, ptr noundef %delta) unnamed_addr #4 align 2 {
entry:
  %retval = alloca ptr, align 8
  %this.addr = alloca ptr, align 8
  %tgt.addr = alloca ptr, align 8
  %src.addr = alloca ptr, align 8
  %delta.addr = alloca ptr, align 8
  store ptr %this, ptr %this.addr, align 8
  store ptr %tgt, ptr %tgt.addr, align 8
  store ptr %src, ptr %src.addr, align 8
  store ptr %delta, ptr %delta.addr, align 8
  %this1 = load ptr, ptr %this.addr, align 8
  %0 = load ptr, ptr %tgt.addr, align 8
  %call = call noundef i32 @_ZNK7datalog17tr_infrastructureINS_12table_traitsEE13base_ancestor8get_kindEv(ptr noundef nonnull align 8 dereferenceable(36) %0)
  %call2 = call noundef i32 @_ZNK7datalog17tr_infrastructureINS_12table_traitsEE13plugin_object8get_kindEv(ptr noundef nonnull align 8 dereferenceable(32) %this1)
  %cmp = icmp ne i32 %call, %call2
  br i1 %cmp, label %if.then, label %lor.lhs.false

lor.lhs.false:                                    ; preds = %entry
  %1 = load ptr, ptr %src.addr, align 8
  %call3 = call noundef i32 @_ZNK7datalog17tr_infrastructureINS_12table_traitsEE13base_ancestor8get_kindEv(ptr noundef nonnull align 8 dereferenceable(36) %1)
  %call4 = call noundef i32 @_ZNK7datalog17tr_infrastructureINS_12table_traitsEE13plugin_object8get_kindEv(ptr noundef nonnull align 8 dereferenceable(32) %this1)
  %cmp5 = icmp ne i32 %call3, %call4
  br i1 %cmp5, label %if.then, label %lor.lhs.false6

lor.lhs.false6:                                   ; preds = %lor.lhs.false
  %2 = load ptr, ptr %delta.addr, align 8
  %tobool = icmp ne ptr %2, null
  br i1 %tobool, label %land.lhs.true, label %lor.lhs.false10

land.lhs.true:                                    ; preds = %lor.lhs.false6
  %3 = load ptr, ptr %delta.addr, align 8
  %call7 = call noundef i32 @_ZNK7datalog17tr_infrastructureINS_12table_traitsEE13base_ancestor8get_kindEv(ptr noundef nonnull align 8 dereferenceable(36) %3)
  %call8 = call noundef i32 @_ZNK7datalog17tr_infrastructureINS_12table_traitsEE13plugin_object8get_kindEv(ptr noundef nonnull align 8 dereferenceable(32) %this1)
  %cmp9 = icmp ne i32 %call7, %call8
  br i1 %cmp9, label %if.then, label %lor.lhs.false10

lor.lhs.false10:                                  ; preds = %land.lhs.true, %lor.lhs.false6
  %4 = load ptr, ptr %tgt.addr, align 8
  %call11 = call noundef nonnull align 8 dereferenceable(12) ptr @_ZNK7datalog17tr_infrastructureINS_12table_traitsEE13base_ancestor13get_signatureEv(ptr noundef nonnull align 8 dereferenceable(36) %4)
  %5 = load ptr, ptr %src.addr, align 8
  %call12 = call noundef nonnull align 8 dereferenceable(12) ptr @_ZNK7datalog17tr_infrastructureINS_12table_traitsEE13base_ancestor13get_signatureEv(ptr noundef nonnull align 8 dereferenceable(36) %5)
  %call13 = call noundef zeroext i1 @_ZNK7datalog15table_signatureneERKS0_(ptr noundef nonnull align 8 dereferenceable(12) %call11, ptr noundef nonnull align 8 dereferenceable(12) %call12)
  br i1 %call13, label %if.then, label %lor.lhs.false14

lor.lhs.false14:                                  ; preds = %lor.lhs.false10
  %6 = load ptr, ptr %delta.addr, align 8
  %tobool15 = icmp ne ptr %6, null
  br i1 %tobool15, label %land.lhs.true16, label %if.end

land.lhs.true16:                                  ; preds = %lor.lhs.false14
  %7 = load ptr, ptr %delta.addr, align 8
  %call17 = call noundef nonnull align 8 dereferenceable(12) ptr @_ZNK7datalog17tr_infrastructureINS_12table_traitsEE13base_ancestor13get_signatureEv(ptr noundef nonnull align 8 dereferenceable(36) %7)
  %8 = load ptr, ptr %tgt.addr, align 8
  %call18 = call noundef nonnull align 8 dereferenceable(12) ptr @_ZNK7datalog17tr_infrastructureINS_12table_traitsEE13base_ancestor13get_signatureEv(ptr noundef nonnull align 8 dereferenceable(36) %8)
  %call19 = call noundef zeroext i1 @_ZNK7datalog15table_signatureneERKS0_(ptr noundef nonnull align 8 dereferenceable(12) %call17, ptr noundef nonnull align 8 dereferenceable(12) %call18)
  br i1 %call19, label %if.then, label %if.end

if.then:                                          ; preds = %land.lhs.true16, %lor.lhs.false10, %land.lhs.true, %lor.lhs.false, %entry
  store ptr null, ptr %retval, align 8
  br label %return

if.end:                                           ; preds = %land.lhs.true16, %lor.lhs.false14
  %call20 = call noalias noundef ptr @_ZN6memory8allocateEm(i64 noundef 8)
  call void @llvm.memset.p0.i64(ptr align 8 %call20, i8 0, i64 8, i1 false)
  call void @_ZN7datalog19sparse_table_plugin8union_fnC2Ev(ptr noundef nonnull align 8 dereferenceable(8) %call20) #3
  store ptr %call20, ptr %retval, align 8
  br label %return

return:                                           ; preds = %if.end, %if.then
  %9 = load ptr, ptr %retval, align 8
  ret ptr %9
}