; Function Attrs: mustprogress uwtable
define hidden noalias noundef ptr @_ZN7datalog19sparse_table_plugin11mk_union_fnERKNS_10table_baseES3_PS2_(ptr nocapture noundef nonnull readonly align 8 dereferenceable(56) %this, ptr nocapture noundef nonnull readonly align 8 dereferenceable(36) %tgt, ptr nocapture noundef nonnull readonly align 8 dereferenceable(36) %src, ptr noundef readonly %delta) unnamed_addr #3 align 2 {
entry:
  %m_kind.i = getelementptr inbounds i8, ptr %tgt, i64 32
  %0 = load i32, ptr %m_kind.i, align 8
  %m_kind.i7 = getelementptr inbounds i8, ptr %this, i64 8
  %1 = load i32, ptr %m_kind.i7, align 8
  %cmp.not = icmp eq i32 %0, %1
  %m_kind.i8 = getelementptr inbounds i8, ptr %src, i64 32
  %2 = load i32, ptr %m_kind.i8, align 8
  %cmp5.not = icmp eq i32 %2, %1
  %or.cond = select i1 %cmp.not, i1 %cmp5.not, i1 false
  br i1 %or.cond, label %lor.lhs.false6, label %return

lor.lhs.false6:                                   ; preds = %entry
  %tobool.not = icmp eq ptr %delta, null
  br i1 %tobool.not, label %lor.lhs.false10, label %land.lhs.true

land.lhs.true:                                    ; preds = %lor.lhs.false6
  %m_kind.i10 = getelementptr inbounds i8, ptr %delta, i64 32
  %3 = load i32, ptr %m_kind.i10, align 8
  %cmp9.not = icmp eq i32 %3, %0
  br i1 %cmp9.not, label %lor.lhs.false10, label %return

lor.lhs.false10:                                  ; preds = %land.lhs.true, %lor.lhs.false6
  %m_signature.i = getelementptr inbounds i8, ptr %tgt, i64 16
  %m_signature.i12 = getelementptr inbounds i8, ptr %src, i64 16
  %4 = load ptr, ptr %m_signature.i, align 8
  %cmp.i.i.i.i = icmp eq ptr %4, null
  br i1 %cmp.i.i.i.i, label %_ZNK6vectorImLb0EjE4sizeEv.exit.i.i.i, label %if.end.i.i.i.i

if.end.i.i.i.i:                                   ; preds = %lor.lhs.false10
  %arrayidx.i.i.i.i = getelementptr inbounds i8, ptr %4, i64 -4
  %5 = load i32, ptr %arrayidx.i.i.i.i, align 4
  br label %_ZNK6vectorImLb0EjE4sizeEv.exit.i.i.i

_ZNK6vectorImLb0EjE4sizeEv.exit.i.i.i:            ; preds = %if.end.i.i.i.i, %lor.lhs.false10
  %retval.0.i.i.i.i = phi i32 [ %5, %if.end.i.i.i.i ], [ 0, %lor.lhs.false10 ]
  %6 = load ptr, ptr %m_signature.i12, align 8
  %cmp.i3.i.i.i = icmp eq ptr %6, null
  br i1 %cmp.i3.i.i.i, label %_ZNK6vectorImLb0EjE4sizeEv.exit7.i.i.i, label %if.end.i4.i.i.i

if.end.i4.i.i.i:                                  ; preds = %_ZNK6vectorImLb0EjE4sizeEv.exit.i.i.i
  %arrayidx.i5.i.i.i = getelementptr inbounds i8, ptr %6, i64 -4
  %7 = load i32, ptr %arrayidx.i5.i.i.i, align 4
  br label %_ZNK6vectorImLb0EjE4sizeEv.exit7.i.i.i

_ZNK6vectorImLb0EjE4sizeEv.exit7.i.i.i:           ; preds = %if.end.i4.i.i.i, %_ZNK6vectorImLb0EjE4sizeEv.exit.i.i.i
  %retval.0.i6.i.i.i = phi i32 [ %7, %if.end.i4.i.i.i ], [ 0, %_ZNK6vectorImLb0EjE4sizeEv.exit.i.i.i ]
  %cmp.not.i.i.i = icmp eq i32 %retval.0.i.i.i.i, %retval.0.i6.i.i.i
  br i1 %cmp.not.i.i.i, label %_ZNK7datalog15table_signatureneERKS0_.exit, label %return

_ZNK7datalog15table_signatureneERKS0_.exit:       ; preds = %_ZNK6vectorImLb0EjE4sizeEv.exit7.i.i.i
  %conv.i.i.i = zext i32 %retval.0.i.i.i.i to i64
  %mul.i.i.i = shl nuw nsw i64 %conv.i.i.i, 3
  %bcmp.i.i.i = tail call i32 @bcmp(ptr %4, ptr %6, i64 %mul.i.i.i)
  %cmp6.i.i.i = icmp ne i32 %bcmp.i.i.i, 0
  %m_functional_columns.i.i = getelementptr inbounds i8, ptr %tgt, i64 24
  %8 = load i32, ptr %m_functional_columns.i.i, align 8
  %m_functional_columns2.i.i = getelementptr inbounds i8, ptr %src, i64 24
  %9 = load i32, ptr %m_functional_columns2.i.i, align 8
  %cmp.i.i = icmp ne i32 %8, %9
  %10 = select i1 %cmp6.i.i.i, i1 true, i1 %cmp.i.i
  br i1 %10, label %return, label %lor.lhs.false14

lor.lhs.false14:                                  ; preds = %_ZNK7datalog15table_signatureneERKS0_.exit
  br i1 %tobool.not, label %if.end, label %land.lhs.true16

land.lhs.true16:                                  ; preds = %lor.lhs.false14
  %m_signature.i13 = getelementptr inbounds i8, ptr %delta, i64 16
  %11 = load ptr, ptr %m_signature.i13, align 8
  %cmp.i.i.i.i15 = icmp eq ptr %11, null
  br i1 %cmp.i.i.i.i15, label %_ZNK6vectorImLb0EjE4sizeEv.exit.i.i.i18, label %if.end.i.i.i.i16

if.end.i.i.i.i16:                                 ; preds = %land.lhs.true16
  %arrayidx.i.i.i.i17 = getelementptr inbounds i8, ptr %11, i64 -4
  %12 = load i32, ptr %arrayidx.i.i.i.i17, align 4
  br label %_ZNK6vectorImLb0EjE4sizeEv.exit.i.i.i18

_ZNK6vectorImLb0EjE4sizeEv.exit.i.i.i18:          ; preds = %if.end.i.i.i.i16, %land.lhs.true16
  %retval.0.i.i.i.i19 = phi i32 [ %12, %if.end.i.i.i.i16 ], [ 0, %land.lhs.true16 ]
  br i1 %cmp.i.i.i.i, label %_ZNK6vectorImLb0EjE4sizeEv.exit7.i.i.i23, label %if.end.i4.i.i.i21

if.end.i4.i.i.i21:                                ; preds = %_ZNK6vectorImLb0EjE4sizeEv.exit.i.i.i18
  %arrayidx.i5.i.i.i22 = getelementptr inbounds i8, ptr %4, i64 -4
  %13 = load i32, ptr %arrayidx.i5.i.i.i22, align 4
  br label %_ZNK6vectorImLb0EjE4sizeEv.exit7.i.i.i23

_ZNK6vectorImLb0EjE4sizeEv.exit7.i.i.i23:         ; preds = %if.end.i4.i.i.i21, %_ZNK6vectorImLb0EjE4sizeEv.exit.i.i.i18
  %retval.0.i6.i.i.i24 = phi i32 [ %13, %if.end.i4.i.i.i21 ], [ 0, %_ZNK6vectorImLb0EjE4sizeEv.exit.i.i.i18 ]
  %cmp.not.i.i.i25 = icmp eq i32 %retval.0.i.i.i.i19, %retval.0.i6.i.i.i24
  br i1 %cmp.not.i.i.i25, label %_ZNK7datalog15table_signatureneERKS0_.exit35, label %return

_ZNK7datalog15table_signatureneERKS0_.exit35:     ; preds = %_ZNK6vectorImLb0EjE4sizeEv.exit7.i.i.i23
  %conv.i.i.i31 = zext i32 %retval.0.i.i.i.i19 to i64
  %mul.i.i.i32 = shl nuw nsw i64 %conv.i.i.i31, 3
  %bcmp.i.i.i33 = tail call i32 @bcmp(ptr %11, ptr %4, i64 %mul.i.i.i32)
  %cmp6.i.i.i34 = icmp ne i32 %bcmp.i.i.i33, 0
  %m_functional_columns.i.i27 = getelementptr inbounds i8, ptr %delta, i64 24
  %14 = load i32, ptr %m_functional_columns.i.i27, align 8
  %cmp.i.i29 = icmp ne i32 %14, %8
  %15 = select i1 %cmp6.i.i.i34, i1 true, i1 %cmp.i.i29
  br i1 %15, label %return, label %if.end

if.end:                                           ; preds = %_ZNK7datalog15table_signatureneERKS0_.exit35, %lor.lhs.false14
  %call20 = tail call noalias noundef ptr @_ZN6memory8allocateEm(i64 noundef 8)
  store ptr getelementptr inbounds ({ [5 x ptr] }, ptr @_ZTVN7datalog19sparse_table_plugin8union_fnE, i64 0, i32 0, i64 2), ptr %call20, align 8
  br label %return

return:                                           ; preds = %_ZNK6vectorImLb0EjE4sizeEv.exit7.i.i.i23, %_ZNK6vectorImLb0EjE4sizeEv.exit7.i.i.i, %entry, %land.lhs.true, %_ZNK7datalog15table_signatureneERKS0_.exit, %_ZNK7datalog15table_signatureneERKS0_.exit35, %if.end
  %retval.0 = phi ptr [ %call20, %if.end ], [ null, %_ZNK7datalog15table_signatureneERKS0_.exit35 ], [ null, %_ZNK7datalog15table_signatureneERKS0_.exit ], [ null, %land.lhs.true ], [ null, %entry ], [ null, %_ZNK6vectorImLb0EjE4sizeEv.exit7.i.i.i ], [ null, %_ZNK6vectorImLb0EjE4sizeEv.exit7.i.i.i23 ]
  ret ptr %retval.0
}